target datalayout = "e-m:e-p270:32:32-p271:32:32-p272:64:64-i64:64-i128:128-f80:128-n8:16:32:64-S128"
target triple = "x86_64-pc-linux-gnu"

%struct.strbuf = type { i64, i64, ptr }
%struct.lock_file = type { ptr }
%struct.tempfile = type { %struct.volatile_list_head, i32, ptr, i32, %struct.strbuf, ptr }
%struct.volatile_list_head = type { ptr, ptr }

@strbuf_slopbuf = external global [0 x i8], align 1
@.str.3 = private unnamed_addr constant [6 x i8] c".lock\00", align 1
@__const.lock_file.filename = private unnamed_addr constant %struct.strbuf { i64 0, i64 0, ptr @strbuf_slopbuf }, align 8
@resolve_symlink.link = internal global %struct.strbuf { i64 0, i64 0, ptr @strbuf_slopbuf }, align 8
@.str.7 = private unnamed_addr constant [11 x i8] c"./strbuf.h\00", align 1
@.str.8 = private unnamed_addr constant [30 x i8] c"strbuf_setlen() beyond buffer\00", align 1

; Function Attrs: inlinehint nounwind uwtable
define internal i32 @git_has_dos_drive_prefix(ptr noundef %0) #2 {
  %2 = alloca ptr, align 8
  store ptr %0, ptr %2, align 8, !tbaa !4
  ret i32 0
}

; Function Attrs: inlinehint nounwind uwtable
define internal i32 @git_is_dir_sep(i32 noundef %0) #2 {
  %2 = alloca i32, align 4
  store i32 %0, ptr %2, align 4, !tbaa !9
  %3 = load i32, ptr %2, align 4, !tbaa !9
  %4 = icmp eq i32 %3, 47
  %5 = zext i1 %4 to i32
  ret i32 %5
}

; Function Attrs: nounwind uwtable
define internal void @trim_last_path_component(ptr noundef %0) #0 {
  %2 = alloca ptr, align 8
  %3 = alloca i32, align 4
  store ptr %0, ptr %2, align 8, !tbaa !11
  call void @llvm.lifetime.start.p0(i64 4, ptr %3) #10
  %4 = load ptr, ptr %2, align 8, !tbaa !11
  %5 = getelementptr inbounds nuw %struct.strbuf, ptr %4, i32 0, i32 1
  %6 = load i64, ptr %5, align 8, !tbaa !23
  %7 = trunc i64 %6 to i32
  store i32 %7, ptr %3, align 4, !tbaa !9
  br label %8

8:                                                ; preds = %24, %1
  %9 = load i32, ptr %3, align 4, !tbaa !9
  %10 = icmp ne i32 %9, 0
  br i1 %10, label %11, label %22

11:                                               ; preds = %8
  %12 = load ptr, ptr %2, align 8, !tbaa !11
  %13 = getelementptr inbounds nuw %struct.strbuf, ptr %12, i32 0, i32 2
  %14 = load ptr, ptr %13, align 8, !tbaa !14
  %15 = load i32, ptr %3, align 4, !tbaa !9
  %16 = sub nsw i32 %15, 1
  %17 = sext i32 %16 to i64
  %18 = getelementptr inbounds i8, ptr %14, i64 %17
  %19 = load i8, ptr %18, align 1, !tbaa !13
  %20 = sext i8 %19 to i32
  %21 = icmp eq i32 %20, 47
  br label %22

22:                                               ; preds = %11, %8
  %23 = phi i1 [ false, %8 ], [ %21, %11 ]
  br i1 %23, label %24, label %27

24:                                               ; preds = %22
  %25 = load i32, ptr %3, align 4, !tbaa !9
  %26 = add nsw i32 %25, -1
  store i32 %26, ptr %3, align 4, !tbaa !9
  br label %8, !llvm.loop !32

27:                                               ; preds = %22
  br label %28

28:                                               ; preds = %44, %27
  %29 = load i32, ptr %3, align 4, !tbaa !9
  %30 = icmp ne i32 %29, 0
  br i1 %30, label %31, label %42

31:                                               ; preds = %28
  %32 = load ptr, ptr %2, align 8, !tbaa !11
  %33 = getelementptr inbounds nuw %struct.strbuf, ptr %32, i32 0, i32 2
  %34 = load ptr, ptr %33, align 8, !tbaa !14
  %35 = load i32, ptr %3, align 4, !tbaa !9
  %36 = sub nsw i32 %35, 1
  %37 = sext i32 %36 to i64
  %38 = getelementptr inbounds i8, ptr %34, i64 %37
  %39 = load i8, ptr %38, align 1, !tbaa !13
  %40 = sext i8 %39 to i32
  %41 = icmp ne i32 %40, 47
  br label %42

42:                                               ; preds = %31, %28
  %43 = phi i1 [ false, %28 ], [ %41, %31 ]
  br i1 %43, label %44, label %47

44:                                               ; preds = %42
  %45 = load i32, ptr %3, align 4, !tbaa !9
  %46 = add nsw i32 %45, -1
  store i32 %46, ptr %3, align 4, !tbaa !9
  br label %28, !llvm.loop !33

47:                                               ; preds = %42
  %48 = load ptr, ptr %2, align 8, !tbaa !11
  %49 = load i32, ptr %3, align 4, !tbaa !9
  %50 = sext i32 %49 to i64
  call void @strbuf_setlen(ptr noundef %48, i64 noundef %50)
  call void @llvm.lifetime.end.p0(i64 4, ptr %3) #10
  ret void
}

; Function Attrs: inlinehint nounwind uwtable
define internal void @strbuf_setlen(ptr noundef %0, i64 noundef %1) #2 {
  %3 = alloca ptr, align 8
  %4 = alloca i64, align 8
  store ptr %0, ptr %3, align 8, !tbaa !11
  store i64 %1, ptr %4, align 8, !tbaa !19
  %5 = load i64, ptr %4, align 8, !tbaa !19
  %6 = load ptr, ptr %3, align 8, !tbaa !11
  %7 = getelementptr inbounds nuw %struct.strbuf, ptr %6, i32 0, i32 0
  %8 = load i64, ptr %7, align 8, !tbaa !24
  %9 = icmp ne i64 %8, 0
  br i1 %9, label %10, label %15

10:                                               ; preds = %2
  %11 = load ptr, ptr %3, align 8, !tbaa !11
  %12 = getelementptr inbounds nuw %struct.strbuf, ptr %11, i32 0, i32 0
  %13 = load i64, ptr %12, align 8, !tbaa !24
  %14 = sub i64 %13, 1
  br label %16

15:                                               ; preds = %2
  br label %16

16:                                               ; preds = %15, %10
  %17 = phi i64 [ %14, %10 ], [ 0, %15 ]
  %18 = icmp ugt i64 %5, %17
  br i1 %18, label %19, label %20

19:                                               ; preds = %16
  call void (ptr, i32, ptr, ...) @BUG_fl(ptr noundef @.str.7, i32 noundef 167, ptr noundef @.str.8) #11
  unreachable

20:                                               ; preds = %16
  %21 = load i64, ptr %4, align 8, !tbaa !19
  %22 = load ptr, ptr %3, align 8, !tbaa !11
  %23 = getelementptr inbounds nuw %struct.strbuf, ptr %22, i32 0, i32 1
  store i64 %21, ptr %23, align 8, !tbaa !23
  %24 = load ptr, ptr %3, align 8, !tbaa !11
  %25 = getelementptr inbounds nuw %struct.strbuf, ptr %24, i32 0, i32 2
  %26 = load ptr, ptr %25, align 8, !tbaa !14
  %27 = icmp ne ptr %26, @strbuf_slopbuf
  br i1 %27, label %28, label %34

28:                                               ; preds = %20
  %29 = load ptr, ptr %3, align 8, !tbaa !11
  %30 = getelementptr inbounds nuw %struct.strbuf, ptr %29, i32 0, i32 2
  %31 = load ptr, ptr %30, align 8, !tbaa !14
  %32 = load i64, ptr %4, align 8, !tbaa !19
  %33 = getelementptr inbounds nuw i8, ptr %31, i64 %32
  store i8 0, ptr %33, align 1, !tbaa !13
  br label %35

34:                                               ; preds = %20
  br label %35

35:                                               ; preds = %34, %28
  ret void
}

; Function Attrs: inlinehint nounwind uwtable
define internal i32 @is_absolute_path(ptr noundef %0) #2 {
  %2 = alloca ptr, align 8
  store ptr %0, ptr %2, align 8, !tbaa !4
  %3 = load ptr, ptr %2, align 8, !tbaa !4
  %4 = getelementptr inbounds i8, ptr %3, i64 0
  %5 = load i8, ptr %4, align 1, !tbaa !13
  %6 = sext i8 %5 to i32
  %7 = call i32 @git_is_dir_sep(i32 noundef %6)
  %8 = icmp ne i32 %7, 0
  br i1 %8, label %13, label %9

9:                                                ; preds = %1
  %10 = load ptr, ptr %2, align 8, !tbaa !4
  %11 = call i32 @git_has_dos_drive_prefix(ptr noundef %10)
  %12 = icmp ne i32 %11, 0
  br label %13

13:                                               ; preds = %9, %1
  %14 = phi i1 [ true, %1 ], [ %12, %9 ]
  %15 = zext i1 %14 to i32
  ret i32 %15
}

; Function Attrs: nounwind uwtable
define internal void @resolve_symlink(ptr noundef %0) #0 {
  %2 = alloca ptr, align 8
  %3 = alloca i32, align 4
  store ptr %0, ptr %2, align 8, !tbaa !11
  call void @llvm.lifetime.start.p0(i64 4, ptr %3) #10
  store i32 5, ptr %3, align 4, !tbaa !9
  br label %4

4:                                                ; preds = %26, %1
  %5 = load i32, ptr %3, align 4, !tbaa !9
  %6 = add nsw i32 %5, -1
  store i32 %6, ptr %3, align 4, !tbaa !9
  %7 = icmp ne i32 %5, 0
  br i1 %7, label %8, label %28

8:                                                ; preds = %4
  %9 = load ptr, ptr %2, align 8, !tbaa !11
  %10 = getelementptr inbounds nuw %struct.strbuf, ptr %9, i32 0, i32 2
  %11 = load ptr, ptr %10, align 8, !tbaa !14
  %12 = load ptr, ptr %2, align 8, !tbaa !11
  %13 = getelementptr inbounds nuw %struct.strbuf, ptr %12, i32 0, i32 1
  %14 = load i64, ptr %13, align 8, !tbaa !23
  %15 = call i32 @strbuf_readlink(ptr noundef @resolve_symlink.link, ptr noundef %11, i64 noundef %14)
  %16 = icmp slt i32 %15, 0
  br i1 %16, label %17, label %18

17:                                               ; preds = %8
  br label %28

18:                                               ; preds = %8
  %19 = load ptr, ptr getelementptr inbounds nuw (%struct.strbuf, ptr @resolve_symlink.link, i32 0, i32 2), align 8, !tbaa !14
  %20 = call i32 @is_absolute_path(ptr noundef %19)
  %21 = icmp ne i32 %20, 0
  br i1 %21, label %22, label %24

22:                                               ; preds = %18
  %23 = load ptr, ptr %2, align 8, !tbaa !11
  call void @strbuf_setlen(ptr noundef %23, i64 noundef 0)
  br label %26

24:                                               ; preds = %18
  %25 = load ptr, ptr %2, align 8, !tbaa !11
  call void @trim_last_path_component(ptr noundef %25)
  br label %26

26:                                               ; preds = %24, %22
  %27 = load ptr, ptr %2, align 8, !tbaa !11
  call void @strbuf_addbuf(ptr noundef %27, ptr noundef @resolve_symlink.link)
  br label %4, !llvm.loop !30

28:                                               ; preds = %17, %4
  call void @strbuf_setlen(ptr noundef @resolve_symlink.link, i64 noundef 0)
  call void @llvm.lifetime.end.p0(i64 4, ptr %3) #10
  ret void
}

; Function Attrs: inlinehint nounwind uwtable
define internal void @strbuf_addstr(ptr noundef %0, ptr noundef %1) #2 {
  %3 = alloca ptr, align 8
  %4 = alloca ptr, align 8
  store ptr %0, ptr %3, align 8, !tbaa !11
  store ptr %1, ptr %4, align 8, !tbaa !4
  %5 = load ptr, ptr %3, align 8, !tbaa !11
  %6 = load ptr, ptr %4, align 8, !tbaa !4
  %7 = load ptr, ptr %4, align 8, !tbaa !4
  %8 = call i64 @strlen(ptr noundef %7) #13
  call void @strbuf_add(ptr noundef %5, ptr noundef %6, i64 noundef %8)
  ret void
}

; Function Attrs: nounwind uwtable
define internal i32 @lock_file(ptr noundef %0, ptr noundef %1, i32 noundef %2, i32 noundef %3) #0 {
  %5 = alloca ptr, align 8
  %6 = alloca ptr, align 8
  %7 = alloca i32, align 4
  %8 = alloca i32, align 4
  %9 = alloca %struct.strbuf, align 8
  store ptr %0, ptr %5, align 8, !tbaa !17
  store ptr %1, ptr %6, align 8, !tbaa !4
  store i32 %2, ptr %7, align 4, !tbaa !9
  store i32 %3, ptr %8, align 4, !tbaa !9
  call void @llvm.lifetime.start.p0(i64 24, ptr %9) #10
  call void @llvm.memcpy.p0.p0.i64(ptr align 8 %9, ptr align 8 @__const.lock_file.filename, i64 24, i1 false)
  %10 = load ptr, ptr %6, align 8, !tbaa !4
  call void @strbuf_addstr(ptr noundef %9, ptr noundef %10)
  %11 = load i32, ptr %7, align 4, !tbaa !9
  %12 = and i32 %11, 2
  %13 = icmp ne i32 %12, 0
  br i1 %13, label %15, label %14

14:                                               ; preds = %4
  call void @resolve_symlink(ptr noundef %9)
  br label %15

15:                                               ; preds = %14, %4
  call void @strbuf_addstr(ptr noundef %9, ptr noundef @.str.3)
  %16 = getelementptr inbounds nuw %struct.strbuf, ptr %9, i32 0, i32 2
  %17 = load ptr, ptr %16, align 8, !tbaa !14
  %18 = load i32, ptr %8, align 4, !tbaa !9
  %19 = call ptr @create_tempfile_mode(ptr noundef %17, i32 noundef %18)
  %20 = load ptr, ptr %5, align 8, !tbaa !17
  %21 = getelementptr inbounds nuw %struct.lock_file, ptr %20, i32 0, i32 0
  store ptr %19, ptr %21, align 8, !tbaa !20
  call void @strbuf_release(ptr noundef %9)
  %22 = load ptr, ptr %5, align 8, !tbaa !17
  %23 = getelementptr inbounds nuw %struct.lock_file, ptr %22, i32 0, i32 0
  %24 = load ptr, ptr %23, align 8, !tbaa !20
  %25 = icmp ne ptr %24, null
  br i1 %25, label %26, label %32

26:                                               ; preds = %15
  %27 = load ptr, ptr %5, align 8, !tbaa !17
  %28 = getelementptr inbounds nuw %struct.lock_file, ptr %27, i32 0, i32 0
  %29 = load ptr, ptr %28, align 8, !tbaa !20
  %30 = getelementptr inbounds nuw %struct.tempfile, ptr %29, i32 0, i32 1
  %31 = load volatile i32, ptr %30, align 8, !tbaa !25
  br label %33

32:                                               ; preds = %15
  br label %33

33:                                               ; preds = %32, %26
  %34 = phi i32 [ %31, %26 ], [ -1, %32 ]
  call void @llvm.lifetime.end.p0(i64 24, ptr %9) #10
  ret i32 %34
}