; Function Attrs: nounwind uwtable
define internal fastcc i32 @lock_file(ptr noundef captures(none) %0, ptr noundef %1, i32 noundef %2, i32 noundef %3) unnamed_addr #0 {
  %5 = alloca %struct.strbuf, align 8
  call void @llvm.lifetime.start.p0(i64 24, ptr nonnull %5) #11
  call void @llvm.memcpy.p0.p0.i64(ptr noundef nonnull align 8 dereferenceable(24) %5, ptr noundef nonnull align 8 dereferenceable(24) @__const.lock_file.filename, i64 24, i1 false)
  %6 = tail call i64 @strlen(ptr noundef nonnull dereferenceable(1) %1) #15
  call void @strbuf_add(ptr noundef nonnull %5, ptr noundef nonnull %1, i64 noundef %6) #11
  %7 = and i32 %2, 2
  %.not = icmp eq i32 %7, 0
  br i1 %.not, label %8, label %resolve_symlink.exit

8:                                                ; preds = %4
  %9 = getelementptr inbounds nuw i8, ptr %5, i64 16
  %10 = getelementptr inbounds nuw i8, ptr %5, i64 8
  br label %11

11:                                               ; preds = %strbuf_setlen.exit.i, %8
  %12 = phi i32 [ 4, %8 ], [ %40, %strbuf_setlen.exit.i ]
  %13 = load ptr, ptr %9, align 8, !tbaa !8
  %14 = load i64, ptr %10, align 8, !tbaa !16
  %15 = call i32 @strbuf_readlink(ptr noundef nonnull @resolve_symlink.link, ptr noundef %13, i64 noundef %14) #11
  %16 = icmp slt i32 %15, 0
  br i1 %16, label %41, label %17

17:                                               ; preds = %11
  %18 = load ptr, ptr getelementptr inbounds nuw (i8, ptr @resolve_symlink.link, i64 16), align 8, !tbaa !8
  %.val.i = load i8, ptr %18, align 1, !tbaa !18
  %.not9.i = icmp eq i8 %.val.i, 47
  br i1 %.not9.i, label %19, label %22

19:                                               ; preds = %17
  store i64 0, ptr %10, align 8, !tbaa !16
  %20 = load ptr, ptr %9, align 8, !tbaa !8
  %.not9.i.i = icmp eq ptr %20, @strbuf_slopbuf
  br i1 %.not9.i.i, label %strbuf_setlen.exit.i, label %21

21:                                               ; preds = %19
  store i8 0, ptr %20, align 1, !tbaa !18
  br label %strbuf_setlen.exit.i

22:                                               ; preds = %17
  %23 = load i64, ptr %10, align 8, !tbaa !16
  %24 = and i64 %23, 4294967295
  %.not14.i.i = icmp eq i64 %24, 0
  %.pre.i = load ptr, ptr %9, align 8, !tbaa !8
  br i1 %.not14.i.i, label %.critedge2.thread.i.i, label %.lr.ph.i.i

.lr.ph.i.i:                                       ; preds = %22
  %invariant.gep.i.i = getelementptr i8, ptr %.pre.i, i64 -1
  %sext.i.i = shl i64 %23, 32
  %25 = ashr exact i64 %sext.i.i, 32
  br label %26

26:                                               ; preds = %29, %.lr.ph.i.i
  %indvars.iv.i.i = phi i64 [ %25, %.lr.ph.i.i ], [ %indvars.iv.next.i.i, %29 ]
  %gep.i.i = getelementptr i8, ptr %invariant.gep.i.i, i64 %indvars.iv.i.i
  %27 = load i8, ptr %gep.i.i, align 1, !tbaa !18
  %28 = icmp eq i8 %27, 47
  br i1 %28, label %29, label %.critedge.i.i

29:                                               ; preds = %26
  %indvars.iv.next.i.i = add nsw i64 %indvars.iv.i.i, -1
  %.not.i.i = icmp eq i64 %indvars.iv.next.i.i, 0
  br i1 %.not.i.i, label %.critedge2.thread.i.i, label %26, !llvm.loop !19

.critedge.i.i:                                    ; preds = %26
  %.not1218.i.i = icmp eq i64 %indvars.iv.i.i, 0
  br i1 %.not1218.i.i, label %.critedge2.thread.i.i, label %.lr.ph20.i.i

.lr.ph20.i.i:                                     ; preds = %.critedge.i.i
  %sext37.i.i = shl i64 %indvars.iv.i.i, 32
  %30 = ashr exact i64 %sext37.i.i, 32
  br label %31

31:                                               ; preds = %33, %.lr.ph20.i.i
  %indvars.iv27.i.i = phi i64 [ %30, %.lr.ph20.i.i ], [ %indvars.iv.next28.i.i, %33 ]
  %gep25.i.i = getelementptr i8, ptr %invariant.gep.i.i, i64 %indvars.iv27.i.i
  %32 = load i8, ptr %gep25.i.i, align 1, !tbaa !18
  %.not13.i.i = icmp eq i8 %32, 47
  br i1 %.not13.i.i, label %.critedge2.i.i, label %33

33:                                               ; preds = %31
  %indvars.iv.next28.i.i = add nsw i64 %indvars.iv27.i.i, -1
  %.not12.i.i = icmp eq i64 %indvars.iv.next28.i.i, 0
  br i1 %.not12.i.i, label %.critedge2.i.i, label %31, !llvm.loop !21

.critedge2.i.i:                                   ; preds = %33, %31
  %.1.lcssa.ph.i.i = phi i64 [ %indvars.iv27.i.i, %31 ], [ 0, %33 ]
  %sext30.i.i = shl i64 %.1.lcssa.ph.i.i, 32
  %34 = ashr exact i64 %sext30.i.i, 32
  %35 = load i64, ptr %5, align 8, !tbaa !17
  %spec.select.i.i.i = call i64 @llvm.usub.sat.i64(i64 %35, i64 1)
  %36 = icmp ult i64 %spec.select.i.i.i, %34
  br i1 %36, label %37, label %.critedge2.thread.i.i

37:                                               ; preds = %.critedge2.i.i
  call void (ptr, i32, ptr, ...) @BUG_fl(ptr noundef nonnull @.str.7, i32 noundef 167, ptr noundef nonnull @.str.8) #12
  unreachable

.critedge2.thread.i.i:                            ; preds = %29, %.critedge2.i.i, %.critedge.i.i, %22
  %.1.lcssa35.i.i = phi i64 [ %34, %.critedge2.i.i ], [ 0, %.critedge.i.i ], [ 0, %22 ], [ 0, %29 ]
  store i64 %.1.lcssa35.i.i, ptr %10, align 8, !tbaa !16
  %.not9.i.i.i = icmp eq ptr %.pre.i, @strbuf_slopbuf
  br i1 %.not9.i.i.i, label %strbuf_setlen.exit.i, label %38

38:                                               ; preds = %.critedge2.thread.i.i
  %39 = getelementptr inbounds nuw i8, ptr %.pre.i, i64 %.1.lcssa35.i.i
  store i8 0, ptr %39, align 1, !tbaa !18
  br label %strbuf_setlen.exit.i

strbuf_setlen.exit.i:                             ; preds = %38, %.critedge2.thread.i.i, %21, %19
  call void @strbuf_addbuf(ptr noundef nonnull %5, ptr noundef nonnull @resolve_symlink.link) #11
  %40 = add nsw i32 %12, -1
  %.not.i = icmp eq i32 %12, 0
  br i1 %.not.i, label %41, label %11, !llvm.loop !22

41:                                               ; preds = %strbuf_setlen.exit.i, %11
  store i64 0, ptr getelementptr inbounds nuw (i8, ptr @resolve_symlink.link, i64 8), align 8, !tbaa !16
  %42 = load ptr, ptr getelementptr inbounds nuw (i8, ptr @resolve_symlink.link, i64 16), align 8, !tbaa !8
  %.not9.i7.i = icmp eq ptr %42, @strbuf_slopbuf
  br i1 %.not9.i7.i, label %resolve_symlink.exit, label %43

43:                                               ; preds = %41
  store i8 0, ptr %42, align 1, !tbaa !18
  br label %resolve_symlink.exit

resolve_symlink.exit:                             ; preds = %43, %41, %4
  call void @strbuf_add(ptr noundef nonnull %5, ptr noundef nonnull @.str.3, i64 noundef 5) #11
  %44 = getelementptr inbounds nuw i8, ptr %5, i64 16
  %45 = load ptr, ptr %44, align 8, !tbaa !8
  %46 = call ptr @create_tempfile_mode(ptr noundef %45, i32 noundef %3) #11
  store ptr %46, ptr %0, align 8, !tbaa !13
  call void @strbuf_release(ptr noundef nonnull %5) #11
  %47 = load ptr, ptr %0, align 8, !tbaa !13
  %.not5 = icmp eq ptr %47, null
  br i1 %.not5, label %51, label %48

48:                                               ; preds = %resolve_symlink.exit
  %49 = getelementptr inbounds nuw i8, ptr %47, i64 16
  %50 = load volatile i32, ptr %49, align 8, !tbaa !23
  br label %51

51:                                               ; preds = %resolve_symlink.exit, %48
  %52 = phi i32 [ %50, %48 ], [ -1, %resolve_symlink.exit ]
  call void @llvm.lifetime.end.p0(i64 24, ptr nonnull %5) #11
  ret i32 %52
}